target datalayout = "e-m:e-p270:32:32-p271:32:32-p272:64:64-i64:64-i128:128-f80:128-n8:16:32:64-S128"
target triple = "x86_64-unknown-linux-gnu"

%"class.std::basic_string_view" = type { i64, ptr }
%"class.grpc_event_engine::experimental::ChannelArgsEndpointConfig" = type { %"class.grpc_event_engine::experimental::EndpointConfig", %"class.grpc_core::ChannelArgs" }
%"class.grpc_event_engine::experimental::EndpointConfig" = type { ptr }
%"class.grpc_core::ChannelArgs" = type { %"class.grpc_core::AVL" }
%"class.grpc_core::AVL" = type { %"class.grpc_core::RefCountedPtr" }
%"class.grpc_core::RefCountedPtr" = type { ptr }
%"class.std::__shared_ptr" = type { ptr, %"class.std::__shared_count" }
%"class.std::__shared_count" = type { ptr }

@.str = private unnamed_addr constant [27 x i8] c"grpc.internal.event_engine\00", align 1

; Function Attrs: mustprogress nounwind uwtable
define linkonce_odr noundef ptr @_ZNKSt12__shared_ptrIN17grpc_event_engine12experimental11EventEngineELN9__gnu_cxx12_Lock_policyE2EE3getEv(ptr noundef nonnull align 8 dereferenceable(16) %this) #6 comdat align 2 {
entry:
  %this.addr = alloca ptr, align 8
  store ptr %this, ptr %this.addr, align 8
  %this1 = load ptr, ptr %this.addr, align 8
  %_M_ptr = getelementptr inbounds %"class.std::__shared_ptr", ptr %this1, i32 0, i32 0
  %0 = load ptr, ptr %_M_ptr, align 8
  ret ptr %0
}

; Function Attrs: mustprogress nounwind uwtable
define linkonce_odr noundef i32 @_ZNSt17basic_string_viewIcSt11char_traitsIcEE10_S_compareEmm(i64 noundef %__n1, i64 noundef %__n2) #6 comdat align 2 {
entry:
  %retval = alloca i32, align 4
  %__n1.addr = alloca i64, align 8
  %__n2.addr = alloca i64, align 8
  %__diff = alloca i64, align 8
  store i64 %__n1, ptr %__n1.addr, align 8
  store i64 %__n2, ptr %__n2.addr, align 8
  %0 = load i64, ptr %__n1.addr, align 8
  %1 = load i64, ptr %__n2.addr, align 8
  %sub = sub i64 %0, %1
  store i64 %sub, ptr %__diff, align 8
  %2 = load i64, ptr %__diff, align 8
  %cmp = icmp sgt i64 %2, 2147483647
  br i1 %cmp, label %if.then, label %if.end

if.then:                                          ; preds = %entry
  store i32 2147483647, ptr %retval, align 4
  br label %return

if.end:                                           ; preds = %entry
  %3 = load i64, ptr %__diff, align 8
  %cmp1 = icmp slt i64 %3, -2147483648
  br i1 %cmp1, label %if.then2, label %if.end3

if.then2:                                         ; preds = %if.end
  store i32 -2147483648, ptr %retval, align 4
  br label %return

if.end3:                                          ; preds = %if.end
  %4 = load i64, ptr %__diff, align 8
  %conv = trunc i64 %4 to i32
  store i32 %conv, ptr %retval, align 4
  br label %return

return:                                           ; preds = %if.end3, %if.then2, %if.then
  %5 = load i32, ptr %retval, align 4
  ret i32 %5
}

; Function Attrs: mustprogress nounwind uwtable
define linkonce_odr noundef i32 @_ZNSt11char_traitsIcE7compareEPKcS2_m(ptr noundef %__s1, ptr noundef %__s2, i64 noundef %__n) #6 comdat align 2 {
entry:
  %retval = alloca i32, align 4
  %__s1.addr = alloca ptr, align 8
  %__s2.addr = alloca ptr, align 8
  %__n.addr = alloca i64, align 8
  store ptr %__s1, ptr %__s1.addr, align 8
  store ptr %__s2, ptr %__s2.addr, align 8
  store i64 %__n, ptr %__n.addr, align 8
  %0 = load i64, ptr %__n.addr, align 8
  %cmp = icmp eq i64 %0, 0
  br i1 %cmp, label %if.then, label %if.end

if.then:                                          ; preds = %entry
  store i32 0, ptr %retval, align 4
  br label %return

if.end:                                           ; preds = %entry
  %1 = load ptr, ptr %__s1.addr, align 8
  %2 = load ptr, ptr %__s2.addr, align 8
  %3 = load i64, ptr %__n.addr, align 8
  %call = call i32 @memcmp(ptr noundef %1, ptr noundef %2, i64 noundef %3) #3
  store i32 %call, ptr %retval, align 4
  br label %return

return:                                           ; preds = %if.end, %if.then
  %4 = load i32, ptr %retval, align 4
  ret i32 %4
}

; Function Attrs: mustprogress nounwind uwtable
define linkonce_odr noundef nonnull align 8 dereferenceable(8) ptr @_ZSt3minImERKT_S2_S2_(ptr noundef nonnull align 8 dereferenceable(8) %__a, ptr noundef nonnull align 8 dereferenceable(8) %__b) #6 comdat {
entry:
  %retval = alloca ptr, align 8
  %__a.addr = alloca ptr, align 8
  %__b.addr = alloca ptr, align 8
  store ptr %__a, ptr %__a.addr, align 8
  store ptr %__b, ptr %__b.addr, align 8
  %0 = load ptr, ptr %__b.addr, align 8
  %1 = load i64, ptr %0, align 8
  %2 = load ptr, ptr %__a.addr, align 8
  %3 = load i64, ptr %2, align 8
  %cmp = icmp ult i64 %1, %3
  br i1 %cmp, label %if.then, label %if.end

if.then:                                          ; preds = %entry
  %4 = load ptr, ptr %__b.addr, align 8
  store ptr %4, ptr %retval, align 8
  br label %return

if.end:                                           ; preds = %entry
  %5 = load ptr, ptr %__a.addr, align 8
  store ptr %5, ptr %retval, align 8
  br label %return

return:                                           ; preds = %if.end, %if.then
  %6 = load ptr, ptr %retval, align 8
  ret ptr %6
}

; Function Attrs: mustprogress nounwind uwtable
define linkonce_odr noundef ptr @_ZN9grpc_core13GetObjectImplIN17grpc_event_engine12experimental11EventEngineEvE3GetEPSt10shared_ptrIS3_E(ptr noundef %p) #6 comdat align 2 {
entry:
  %retval = alloca ptr, align 8
  %p.addr = alloca ptr, align 8
  store ptr %p, ptr %p.addr, align 8
  %0 = load ptr, ptr %p.addr, align 8
  %cmp = icmp eq ptr %0, null
  br i1 %cmp, label %if.then, label %if.end

if.then:                                          ; preds = %entry
  store ptr null, ptr %retval, align 8
  br label %return

if.end:                                           ; preds = %entry
  %1 = load ptr, ptr %p.addr, align 8
  %call = call noundef ptr @_ZNKSt12__shared_ptrIN17grpc_event_engine12experimental11EventEngineELN9__gnu_cxx12_Lock_policyE2EE3getEv(ptr noundef nonnull align 8 dereferenceable(16) %1) #3
  store ptr %call, ptr %retval, align 8
  br label %return

return:                                           ; preds = %if.end, %if.then
  %2 = load ptr, ptr %retval, align 8
  ret ptr %2
}

; Function Attrs: mustprogress uwtable
define linkonce_odr noundef ptr @_ZNK9grpc_core11ChannelArgs10GetPointerIN17grpc_event_engine12experimental11EventEngineEEENS_13GetObjectImplIT_vE10StoredTypeESt17basic_string_viewIcSt11char_traitsIcEE(ptr noundef nonnull align 8 dereferenceable(8) %this, i64 %name.coerce0, ptr %name.coerce1) #4 comdat align 2 {
entry:
  %name = alloca %"class.std::basic_string_view", align 8
  %this.addr = alloca ptr, align 8
  %agg.tmp = alloca %"class.std::basic_string_view", align 8
  %0 = getelementptr inbounds { i64, ptr }, ptr %name, i32 0, i32 0
  store i64 %name.coerce0, ptr %0, align 8
  %1 = getelementptr inbounds { i64, ptr }, ptr %name, i32 0, i32 1
  store ptr %name.coerce1, ptr %1, align 8
  store ptr %this, ptr %this.addr, align 8
  %this1 = load ptr, ptr %this.addr, align 8
  call void @llvm.memcpy.p0.p0.i64(ptr align 8 %agg.tmp, ptr align 8 %name, i64 16, i1 false)
  %2 = getelementptr inbounds { i64, ptr }, ptr %agg.tmp, i32 0, i32 0
  %3 = load i64, ptr %2, align 8
  %4 = getelementptr inbounds { i64, ptr }, ptr %agg.tmp, i32 0, i32 1
  %5 = load ptr, ptr %4, align 8
  %call = call noundef ptr @_ZNK9grpc_core11ChannelArgs14GetVoidPointerESt17basic_string_viewIcSt11char_traitsIcEE(ptr noundef nonnull align 8 dereferenceable(8) %this1, i64 %3, ptr %5)
  ret ptr %call
}

; Function Attrs: mustprogress nounwind uwtable
define linkonce_odr { i64, ptr } @_ZN9grpc_core20ChannelArgNameTraitsIN17grpc_event_engine12experimental11EventEngineEE14ChannelArgNameEv() #6 comdat align 2 {
entry:
  %retval = alloca %"class.std::basic_string_view", align 8
  call void @_ZNSt17basic_string_viewIcSt11char_traitsIcEEC2EPKc(ptr noundef nonnull align 8 dereferenceable(16) %retval, ptr noundef @.str) #3
  %0 = load { i64, ptr }, ptr %retval, align 8
  ret { i64, ptr } %0
}

; Function Attrs: mustprogress nounwind uwtable
define linkonce_odr noundef i32 @_ZNKSt17basic_string_viewIcSt11char_traitsIcEE7compareES2_(ptr noundef nonnull align 8 dereferenceable(16) %this, i64 %__str.coerce0, ptr %__str.coerce1) #6 comdat align 2 personality ptr @__gxx_personality_v0 {
entry:
  %__str = alloca %"class.std::basic_string_view", align 8
  %this.addr = alloca ptr, align 8
  %__rlen = alloca i64, align 8
  %__ret = alloca i32, align 4
  %0 = getelementptr inbounds { i64, ptr }, ptr %__str, i32 0, i32 0
  store i64 %__str.coerce0, ptr %0, align 8
  %1 = getelementptr inbounds { i64, ptr }, ptr %__str, i32 0, i32 1
  store ptr %__str.coerce1, ptr %1, align 8
  store ptr %this, ptr %this.addr, align 8
  %this1 = load ptr, ptr %this.addr, align 8
  %_M_len = getelementptr inbounds %"class.std::basic_string_view", ptr %this1, i32 0, i32 0
  %_M_len2 = getelementptr inbounds %"class.std::basic_string_view", ptr %__str, i32 0, i32 0
  %call = invoke noundef nonnull align 8 dereferenceable(8) ptr @_ZSt3minImERKT_S2_S2_(ptr noundef nonnull align 8 dereferenceable(8) %_M_len, ptr noundef nonnull align 8 dereferenceable(8) %_M_len2)
          to label %invoke.cont unwind label %terminate.lpad

invoke.cont:                                      ; preds = %entry
  %2 = load i64, ptr %call, align 8
  store i64 %2, ptr %__rlen, align 8
  %_M_str = getelementptr inbounds %"class.std::basic_string_view", ptr %this1, i32 0, i32 1
  %3 = load ptr, ptr %_M_str, align 8
  %_M_str3 = getelementptr inbounds %"class.std::basic_string_view", ptr %__str, i32 0, i32 1
  %4 = load ptr, ptr %_M_str3, align 8
  %5 = load i64, ptr %__rlen, align 8
  %call5 = invoke noundef i32 @_ZNSt11char_traitsIcE7compareEPKcS2_m(ptr noundef %3, ptr noundef %4, i64 noundef %5)
          to label %invoke.cont4 unwind label %terminate.lpad

invoke.cont4:                                     ; preds = %invoke.cont
  store i32 %call5, ptr %__ret, align 4
  %6 = load i32, ptr %__ret, align 4
  %cmp = icmp eq i32 %6, 0
  br i1 %cmp, label %if.then, label %if.end

if.then:                                          ; preds = %invoke.cont4
  %_M_len6 = getelementptr inbounds %"class.std::basic_string_view", ptr %this1, i32 0, i32 0
  %7 = load i64, ptr %_M_len6, align 8
  %_M_len7 = getelementptr inbounds %"class.std::basic_string_view", ptr %__str, i32 0, i32 0
  %8 = load i64, ptr %_M_len7, align 8
  %call8 = call noundef i32 @_ZNSt17basic_string_viewIcSt11char_traitsIcEE10_S_compareEmm(i64 noundef %7, i64 noundef %8) #3
  store i32 %call8, ptr %__ret, align 4
  br label %if.end

if.end:                                           ; preds = %if.then, %invoke.cont4
  %9 = load i32, ptr %__ret, align 4
  ret i32 %9

terminate.lpad:                                   ; preds = %invoke.cont, %entry
  %10 = landingpad { ptr, i32 }
          catch ptr null
  %11 = extractvalue { ptr, i32 } %10, 0
  call void @__clang_call_terminate(ptr %11) #9
  unreachable
}

; Function Attrs: mustprogress nounwind uwtable
define linkonce_odr noundef i64 @_ZNKSt17basic_string_viewIcSt11char_traitsIcEE4sizeEv(ptr noundef nonnull align 8 dereferenceable(16) %this) #6 comdat align 2 {
entry:
  %this.addr = alloca ptr, align 8
  store ptr %this, ptr %this.addr, align 8
  %this1 = load ptr, ptr %this.addr, align 8
  %_M_len = getelementptr inbounds %"class.std::basic_string_view", ptr %this1, i32 0, i32 0
  %0 = load i64, ptr %_M_len, align 8
  ret i64 %0
}

; Function Attrs: noreturn nounwind uwtable
define linkonce_odr hidden void @__clang_call_terminate(ptr noundef %0) #7 comdat {
  %2 = call ptr @__cxa_begin_catch(ptr %0) #3
  call void @_ZSt9terminatev() #9
  unreachable
}

; Function Attrs: mustprogress nounwind uwtable
define linkonce_odr noundef i64 @_ZNSt11char_traitsIcE6lengthEPKc(ptr noundef %__s) #6 comdat align 2 {
entry:
  %__s.addr = alloca ptr, align 8
  store ptr %__s, ptr %__s.addr, align 8
  %0 = load ptr, ptr %__s.addr, align 8
  %call = call i64 @strlen(ptr noundef %0) #3
  ret i64 %call
}

; Function Attrs: mustprogress uwtable
define linkonce_odr noundef ptr @_ZNK9grpc_core11ChannelArgs9GetObjectIN17grpc_event_engine12experimental11EventEngineEEENS_13GetObjectImplIT_vE6ResultEv(ptr noundef nonnull align 8 dereferenceable(8) %this) #4 comdat align 2 {
entry:
  %this.addr = alloca ptr, align 8
  %agg.tmp = alloca %"class.std::basic_string_view", align 8
  store ptr %this, ptr %this.addr, align 8
  %this1 = load ptr, ptr %this.addr, align 8
  %call = call { i64, ptr } @_ZN9grpc_core20ChannelArgNameTraitsIN17grpc_event_engine12experimental11EventEngineEE14ChannelArgNameEv()
  %0 = getelementptr inbounds { i64, ptr }, ptr %agg.tmp, i32 0, i32 0
  %1 = extractvalue { i64, ptr } %call, 0
  store i64 %1, ptr %0, align 8
  %2 = getelementptr inbounds { i64, ptr }, ptr %agg.tmp, i32 0, i32 1
  %3 = extractvalue { i64, ptr } %call, 1
  store ptr %3, ptr %2, align 8
  %4 = getelementptr inbounds { i64, ptr }, ptr %agg.tmp, i32 0, i32 0
  %5 = load i64, ptr %4, align 8
  %6 = getelementptr inbounds { i64, ptr }, ptr %agg.tmp, i32 0, i32 1
  %7 = load ptr, ptr %6, align 8
  %call2 = call noundef ptr @_ZNK9grpc_core11ChannelArgs10GetPointerIN17grpc_event_engine12experimental11EventEngineEEENS_13GetObjectImplIT_vE10StoredTypeESt17basic_string_viewIcSt11char_traitsIcEE(ptr noundef nonnull align 8 dereferenceable(8) %this1, i64 %5, ptr %7)
  %call3 = call noundef ptr @_ZN9grpc_core13GetObjectImplIN17grpc_event_engine12experimental11EventEngineEvE3GetEPSt10shared_ptrIS3_E(ptr noundef %call2)
  ret ptr %call3
}

; Function Attrs: mustprogress nounwind uwtable
define linkonce_odr noundef zeroext i1 @_ZSteqIcSt11char_traitsIcEEbSt17basic_string_viewIT_T0_ENSt15__type_identityIS5_E4typeE(i64 %__x.coerce0, ptr %__x.coerce1, i64 %__y.coerce0, ptr %__y.coerce1) #6 comdat {
entry:
  %__x = alloca %"class.std::basic_string_view", align 8
  %__y = alloca %"class.std::basic_string_view", align 8
  %agg.tmp = alloca %"class.std::basic_string_view", align 8
  %0 = getelementptr inbounds { i64, ptr }, ptr %__x, i32 0, i32 0
  store i64 %__x.coerce0, ptr %0, align 8
  %1 = getelementptr inbounds { i64, ptr }, ptr %__x, i32 0, i32 1
  store ptr %__x.coerce1, ptr %1, align 8
  %2 = getelementptr inbounds { i64, ptr }, ptr %__y, i32 0, i32 0
  store i64 %__y.coerce0, ptr %2, align 8
  %3 = getelementptr inbounds { i64, ptr }, ptr %__y, i32 0, i32 1
  store ptr %__y.coerce1, ptr %3, align 8
  %call = call noundef i64 @_ZNKSt17basic_string_viewIcSt11char_traitsIcEE4sizeEv(ptr noundef nonnull align 8 dereferenceable(16) %__x) #3
  %call1 = call noundef i64 @_ZNKSt17basic_string_viewIcSt11char_traitsIcEE4sizeEv(ptr noundef nonnull align 8 dereferenceable(16) %__y) #3
  %cmp = icmp eq i64 %call, %call1
  br i1 %cmp, label %land.rhs, label %land.end

land.rhs:                                         ; preds = %entry
  call void @llvm.memcpy.p0.p0.i64(ptr align 8 %agg.tmp, ptr align 8 %__y, i64 16, i1 false)
  %4 = getelementptr inbounds { i64, ptr }, ptr %agg.tmp, i32 0, i32 0
  %5 = load i64, ptr %4, align 8
  %6 = getelementptr inbounds { i64, ptr }, ptr %agg.tmp, i32 0, i32 1
  %7 = load ptr, ptr %6, align 8
  %call2 = call noundef i32 @_ZNKSt17basic_string_viewIcSt11char_traitsIcEE7compareES2_(ptr noundef nonnull align 8 dereferenceable(16) %__x, i64 %5, ptr %7) #3
  %cmp3 = icmp eq i32 %call2, 0
  br label %land.end

land.end:                                         ; preds = %land.rhs, %entry
  %8 = phi i1 [ false, %entry ], [ %cmp3, %land.rhs ]
  ret i1 %8
}

; Function Attrs: mustprogress nounwind uwtable
define linkonce_odr void @_ZNSt17basic_string_viewIcSt11char_traitsIcEEC2EPKc(ptr noundef nonnull align 8 dereferenceable(16) %this, ptr noundef nonnull %__str) unnamed_addr #6 comdat align 2 personality ptr @__gxx_personality_v0 {
entry:
  %this.addr = alloca ptr, align 8
  %__str.addr = alloca ptr, align 8
  store ptr %this, ptr %this.addr, align 8
  store ptr %__str, ptr %__str.addr, align 8
  %this1 = load ptr, ptr %this.addr, align 8
  %_M_len = getelementptr inbounds %"class.std::basic_string_view", ptr %this1, i32 0, i32 0
  %0 = load ptr, ptr %__str.addr, align 8
  %call = invoke noundef i64 @_ZNSt11char_traitsIcE6lengthEPKc(ptr noundef %0)
          to label %invoke.cont unwind label %terminate.lpad

invoke.cont:                                      ; preds = %entry
  store i64 %call, ptr %_M_len, align 8
  %_M_str = getelementptr inbounds %"class.std::basic_string_view", ptr %this1, i32 0, i32 1
  %1 = load ptr, ptr %__str.addr, align 8
  store ptr %1, ptr %_M_str, align 8
  ret void

terminate.lpad:                                   ; preds = %entry
  %2 = landingpad { ptr, i32 }
          catch ptr null
  %3 = extractvalue { ptr, i32 } %2, 0
  call void @__clang_call_terminate(ptr %3) #9
  unreachable
}

; Function Attrs: mustprogress uwtable
define noundef ptr @_ZNK17grpc_event_engine12experimental25ChannelArgsEndpointConfig14GetVoidPointerESt17basic_string_viewIcSt11char_traitsIcEE(ptr noundef nonnull align 8 dereferenceable(16) %this, i64 %key.coerce0, ptr %key.coerce1) unnamed_addr #4 align 2 {
entry:
  %retval = alloca ptr, align 8
  %key = alloca %"class.std::basic_string_view", align 8
  %this.addr = alloca ptr, align 8
  %agg.tmp = alloca %"class.std::basic_string_view", align 8
  %agg.tmp2 = alloca %"class.std::basic_string_view", align 8
  %agg.tmp5 = alloca %"class.std::basic_string_view", align 8
  %0 = getelementptr inbounds { i64, ptr }, ptr %key, i32 0, i32 0
  store i64 %key.coerce0, ptr %0, align 8
  %1 = getelementptr inbounds { i64, ptr }, ptr %key, i32 0, i32 1
  store ptr %key.coerce1, ptr %1, align 8
  store ptr %this, ptr %this.addr, align 8
  %this1 = load ptr, ptr %this.addr, align 8
  call void @llvm.memcpy.p0.p0.i64(ptr align 8 %agg.tmp, ptr align 8 %key, i64 16, i1 false)
  call void @_ZNSt17basic_string_viewIcSt11char_traitsIcEEC2EPKc(ptr noundef nonnull align 8 dereferenceable(16) %agg.tmp2, ptr noundef @.str) #3
  %2 = getelementptr inbounds { i64, ptr }, ptr %agg.tmp, i32 0, i32 0
  %3 = load i64, ptr %2, align 8
  %4 = getelementptr inbounds { i64, ptr }, ptr %agg.tmp, i32 0, i32 1
  %5 = load ptr, ptr %4, align 8
  %6 = getelementptr inbounds { i64, ptr }, ptr %agg.tmp2, i32 0, i32 0
  %7 = load i64, ptr %6, align 8
  %8 = getelementptr inbounds { i64, ptr }, ptr %agg.tmp2, i32 0, i32 1
  %9 = load ptr, ptr %8, align 8
  %call = call noundef zeroext i1 @_ZSteqIcSt11char_traitsIcEEbSt17basic_string_viewIT_T0_ENSt15__type_identityIS5_E4typeE(i64 %3, ptr %5, i64 %7, ptr %9) #3
  br i1 %call, label %if.then, label %if.end

if.then:                                          ; preds = %entry
  %args_ = getelementptr inbounds %"class.grpc_event_engine::experimental::ChannelArgsEndpointConfig", ptr %this1, i32 0, i32 1
  %call3 = call noundef ptr @_ZNK9grpc_core11ChannelArgs9GetObjectIN17grpc_event_engine12experimental11EventEngineEEENS_13GetObjectImplIT_vE6ResultEv(ptr noundef nonnull align 8 dereferenceable(8) %args_)
  store ptr %call3, ptr %retval, align 8
  br label %return

if.end:                                           ; preds = %entry
  %args_4 = getelementptr inbounds %"class.grpc_event_engine::experimental::ChannelArgsEndpointConfig", ptr %this1, i32 0, i32 1
  call void @llvm.memcpy.p0.p0.i64(ptr align 8 %agg.tmp5, ptr align 8 %key, i64 16, i1 false)
  %10 = getelementptr inbounds { i64, ptr }, ptr %agg.tmp5, i32 0, i32 0
  %11 = load i64, ptr %10, align 8
  %12 = getelementptr inbounds { i64, ptr }, ptr %agg.tmp5, i32 0, i32 1
  %13 = load ptr, ptr %12, align 8
  %call6 = call noundef ptr @_ZNK9grpc_core11ChannelArgs14GetVoidPointerESt17basic_string_viewIcSt11char_traitsIcEE(ptr noundef nonnull align 8 dereferenceable(8) %args_4, i64 %11, ptr %13)
  store ptr %call6, ptr %retval, align 8
  br label %return

return:                                           ; preds = %if.end, %if.then
  %14 = load ptr, ptr %retval, align 8
  ret ptr %14
}