; Function Attrs: mustprogress uwtable
define noundef ptr @_ZNK17grpc_event_engine12experimental25ChannelArgsEndpointConfig14GetVoidPointerESt17basic_string_viewIcSt11char_traitsIcEE(ptr noundef nonnull align 8 dereferenceable(16) %this, i64 %key.coerce0, ptr %key.coerce1) unnamed_addr #3 align 2 personality ptr @__gxx_personality_v0 {
entry:
  %cmp.i = icmp eq i64 %key.coerce0, 26
  br i1 %cmp.i, label %_ZNSt11char_traitsIcE7compareEPKcS2_m.exit.i.i, label %if.end

_ZNSt11char_traitsIcE7compareEPKcS2_m.exit.i.i:   ; preds = %entry
  %bcmp.i = tail call i32 @bcmp(ptr noundef nonnull dereferenceable(26) %key.coerce1, ptr noundef nonnull dereferenceable(26) @.str, i64 26)
  %cmp.i.i = icmp eq i32 %bcmp.i, 0
  br i1 %cmp.i.i, label %if.then, label %if.end

if.then:                                          ; preds = %_ZNSt11char_traitsIcE7compareEPKcS2_m.exit.i.i
  %args_ = getelementptr inbounds i8, ptr %this, i64 8
  %call.i.i2 = tail call noundef ptr @_ZNK9grpc_core11ChannelArgs14GetVoidPointerESt17basic_string_viewIcSt11char_traitsIcEE(ptr noundef nonnull align 8 dereferenceable(8) %args_, i64 26, ptr nonnull @.str)
  %cmp.i.i3 = icmp eq ptr %call.i.i2, null
  br i1 %cmp.i.i3, label %return, label %if.end.i.i

if.end.i.i:                                       ; preds = %if.then
  %0 = load ptr, ptr %call.i.i2, align 8
  br label %return

if.end:                                           ; preds = %entry, %_ZNSt11char_traitsIcE7compareEPKcS2_m.exit.i.i
  %args_4 = getelementptr inbounds i8, ptr %this, i64 8
  %call6 = tail call noundef ptr @_ZNK9grpc_core11ChannelArgs14GetVoidPointerESt17basic_string_viewIcSt11char_traitsIcEE(ptr noundef nonnull align 8 dereferenceable(8) %args_4, i64 %key.coerce0, ptr %key.coerce1)
  br label %return

return:                                           ; preds = %if.end.i.i, %if.then, %if.end
  %retval.0 = phi ptr [ %call6, %if.end ], [ %0, %if.end.i.i ], [ null, %if.then ]
  ret ptr %retval.0
}